ARM GAS  C:\Users\ADMINI~1\AppData\Local\Temp\cckh5Gsh.s 			page 1


   1              		.syntax unified
   2              		.cpu cortex-m3
   3              		.fpu softvfp
   4              		.eabi_attribute 20, 1
   5              		.eabi_attribute 21, 1
   6              		.eabi_attribute 23, 3
   7              		.eabi_attribute 24, 1
   8              		.eabi_attribute 25, 1
   9              		.eabi_attribute 26, 1
  10              		.eabi_attribute 30, 1
  11              		.eabi_attribute 34, 1
  12              		.eabi_attribute 18, 4
  13              		.thumb
  14              		.syntax unified
  15              		.file	"adc.c"
  16              		.text
  17              	.Ltext0:
  18              		.cfi_sections	.debug_frame
  19              		.section	.text.MX_ADC1_Init,"ax",%progbits
  20              		.align	2
  21              		.global	MX_ADC1_Init
  22              		.thumb
  23              		.thumb_func
  25              	MX_ADC1_Init:
  26              	.LFB65:
  27              		.file 1 "Core/Src/adc.c"
   1:Core/Src/adc.c **** /**
   2:Core/Src/adc.c ****   ******************************************************************************
   3:Core/Src/adc.c ****   * File Name          : ADC.c
   4:Core/Src/adc.c ****   * Description        : This file provides code for the configuration
   5:Core/Src/adc.c ****   *                      of the ADC instances.
   6:Core/Src/adc.c ****   ******************************************************************************
   7:Core/Src/adc.c ****   * @attention
   8:Core/Src/adc.c ****   *
   9:Core/Src/adc.c ****   * <h2><center>&copy; Copyright (c) 2020 STMicroelectronics.
  10:Core/Src/adc.c ****   * All rights reserved.</center></h2>
  11:Core/Src/adc.c ****   *
  12:Core/Src/adc.c ****   * This software component is licensed by ST under Ultimate Liberty license
  13:Core/Src/adc.c ****   * SLA0044, the "License"; You may not use this file except in compliance with
  14:Core/Src/adc.c ****   * the License. You may obtain a copy of the License at:
  15:Core/Src/adc.c ****   *                             www.st.com/SLA0044
  16:Core/Src/adc.c ****   *
  17:Core/Src/adc.c ****   ******************************************************************************
  18:Core/Src/adc.c ****   */
  19:Core/Src/adc.c **** 
  20:Core/Src/adc.c **** /* Includes ------------------------------------------------------------------*/
  21:Core/Src/adc.c **** #include "adc.h"
  22:Core/Src/adc.c **** 
  23:Core/Src/adc.c **** /* USER CODE BEGIN 0 */
  24:Core/Src/adc.c **** 
  25:Core/Src/adc.c **** /* USER CODE END 0 */
  26:Core/Src/adc.c **** 
  27:Core/Src/adc.c **** ADC_HandleTypeDef hadc1;
  28:Core/Src/adc.c **** ADC_HandleTypeDef hadc2;
  29:Core/Src/adc.c **** ADC_HandleTypeDef hadc3;
  30:Core/Src/adc.c **** 
  31:Core/Src/adc.c **** /* ADC1 init function */
ARM GAS  C:\Users\ADMINI~1\AppData\Local\Temp\cckh5Gsh.s 			page 2


  32:Core/Src/adc.c **** void MX_ADC1_Init(void)
  33:Core/Src/adc.c **** {
  28              		.loc 1 33 0
  29              		.cfi_startproc
  30              		@ args = 0, pretend = 0, frame = 16
  31              		@ frame_needed = 0, uses_anonymous_args = 0
  32 0000 00B5     		push	{lr}
  33              	.LCFI0:
  34              		.cfi_def_cfa_offset 4
  35              		.cfi_offset 14, -4
  36 0002 85B0     		sub	sp, sp, #20
  37              	.LCFI1:
  38              		.cfi_def_cfa_offset 24
  34:Core/Src/adc.c ****   ADC_ChannelConfTypeDef sConfig = {0};
  39              		.loc 1 34 0
  40 0004 0023     		movs	r3, #0
  41 0006 0193     		str	r3, [sp, #4]
  42 0008 0293     		str	r3, [sp, #8]
  43 000a 0393     		str	r3, [sp, #12]
  35:Core/Src/adc.c **** 
  36:Core/Src/adc.c ****   /** Common config
  37:Core/Src/adc.c ****   */
  38:Core/Src/adc.c ****   hadc1.Instance = ADC1;
  44              		.loc 1 38 0
  45 000c 1048     		ldr	r0, .L5
  46 000e 114A     		ldr	r2, .L5+4
  47 0010 0260     		str	r2, [r0]
  39:Core/Src/adc.c ****   hadc1.Init.ScanConvMode = ADC_SCAN_DISABLE;
  48              		.loc 1 39 0
  49 0012 8360     		str	r3, [r0, #8]
  40:Core/Src/adc.c ****   hadc1.Init.ContinuousConvMode = DISABLE;
  50              		.loc 1 40 0
  51 0014 0373     		strb	r3, [r0, #12]
  41:Core/Src/adc.c ****   hadc1.Init.DiscontinuousConvMode = DISABLE;
  52              		.loc 1 41 0
  53 0016 0375     		strb	r3, [r0, #20]
  42:Core/Src/adc.c ****   hadc1.Init.ExternalTrigConv = ADC_SOFTWARE_START;
  54              		.loc 1 42 0
  55 0018 4FF46022 		mov	r2, #917504
  56 001c C261     		str	r2, [r0, #28]
  43:Core/Src/adc.c ****   hadc1.Init.DataAlign = ADC_DATAALIGN_RIGHT;
  57              		.loc 1 43 0
  58 001e 4360     		str	r3, [r0, #4]
  44:Core/Src/adc.c ****   hadc1.Init.NbrOfConversion = 1;
  59              		.loc 1 44 0
  60 0020 0123     		movs	r3, #1
  61 0022 0361     		str	r3, [r0, #16]
  45:Core/Src/adc.c ****   if (HAL_ADC_Init(&hadc1) != HAL_OK)
  62              		.loc 1 45 0
  63 0024 FFF7FEFF 		bl	HAL_ADC_Init
  64              	.LVL0:
  65 0028 08B1     		cbz	r0, .L2
  46:Core/Src/adc.c ****   {
  47:Core/Src/adc.c ****     Error_Handler();
  66              		.loc 1 47 0
  67 002a FFF7FEFF 		bl	Error_Handler
  68              	.LVL1:
ARM GAS  C:\Users\ADMINI~1\AppData\Local\Temp\cckh5Gsh.s 			page 3


  69              	.L2:
  48:Core/Src/adc.c ****   }
  49:Core/Src/adc.c ****   /** Configure Regular Channel
  50:Core/Src/adc.c ****   */
  51:Core/Src/adc.c ****   sConfig.Channel = ADC_CHANNEL_10;
  70              		.loc 1 51 0
  71 002e 0A23     		movs	r3, #10
  72 0030 0193     		str	r3, [sp, #4]
  52:Core/Src/adc.c ****   sConfig.Rank = ADC_REGULAR_RANK_1;
  73              		.loc 1 52 0
  74 0032 0123     		movs	r3, #1
  75 0034 0293     		str	r3, [sp, #8]
  53:Core/Src/adc.c ****   sConfig.SamplingTime = ADC_SAMPLETIME_1CYCLE_5;
  76              		.loc 1 53 0
  77 0036 0023     		movs	r3, #0
  78 0038 0393     		str	r3, [sp, #12]
  54:Core/Src/adc.c ****   if (HAL_ADC_ConfigChannel(&hadc1, &sConfig) != HAL_OK)
  79              		.loc 1 54 0
  80 003a 01A9     		add	r1, sp, #4
  81 003c 0448     		ldr	r0, .L5
  82 003e FFF7FEFF 		bl	HAL_ADC_ConfigChannel
  83              	.LVL2:
  84 0042 08B1     		cbz	r0, .L1
  55:Core/Src/adc.c ****   {
  56:Core/Src/adc.c ****     Error_Handler();
  85              		.loc 1 56 0
  86 0044 FFF7FEFF 		bl	Error_Handler
  87              	.LVL3:
  88              	.L1:
  57:Core/Src/adc.c ****   }
  58:Core/Src/adc.c **** 
  59:Core/Src/adc.c **** }
  89              		.loc 1 59 0
  90 0048 05B0     		add	sp, sp, #20
  91              	.LCFI2:
  92              		.cfi_def_cfa_offset 4
  93              		@ sp needed
  94 004a 5DF804FB 		ldr	pc, [sp], #4
  95              	.L6:
  96 004e 00BF     		.align	2
  97              	.L5:
  98 0050 00000000 		.word	hadc1
  99 0054 00240140 		.word	1073816576
 100              		.cfi_endproc
 101              	.LFE65:
 103              		.section	.text.MX_ADC2_Init,"ax",%progbits
 104              		.align	2
 105              		.global	MX_ADC2_Init
 106              		.thumb
 107              		.thumb_func
 109              	MX_ADC2_Init:
 110              	.LFB66:
  60:Core/Src/adc.c **** /* ADC2 init function */
  61:Core/Src/adc.c **** void MX_ADC2_Init(void)
  62:Core/Src/adc.c **** {
 111              		.loc 1 62 0
 112              		.cfi_startproc
ARM GAS  C:\Users\ADMINI~1\AppData\Local\Temp\cckh5Gsh.s 			page 4


 113              		@ args = 0, pretend = 0, frame = 16
 114              		@ frame_needed = 0, uses_anonymous_args = 0
 115 0000 00B5     		push	{lr}
 116              	.LCFI3:
 117              		.cfi_def_cfa_offset 4
 118              		.cfi_offset 14, -4
 119 0002 85B0     		sub	sp, sp, #20
 120              	.LCFI4:
 121              		.cfi_def_cfa_offset 24
  63:Core/Src/adc.c ****   ADC_ChannelConfTypeDef sConfig = {0};
 122              		.loc 1 63 0
 123 0004 0023     		movs	r3, #0
 124 0006 0193     		str	r3, [sp, #4]
 125 0008 0293     		str	r3, [sp, #8]
 126 000a 0393     		str	r3, [sp, #12]
  64:Core/Src/adc.c **** 
  65:Core/Src/adc.c ****   /** Common config
  66:Core/Src/adc.c ****   */
  67:Core/Src/adc.c ****   hadc2.Instance = ADC2;
 127              		.loc 1 67 0
 128 000c 1048     		ldr	r0, .L11
 129 000e 114A     		ldr	r2, .L11+4
 130 0010 0260     		str	r2, [r0]
  68:Core/Src/adc.c ****   hadc2.Init.ScanConvMode = ADC_SCAN_DISABLE;
 131              		.loc 1 68 0
 132 0012 8360     		str	r3, [r0, #8]
  69:Core/Src/adc.c ****   hadc2.Init.ContinuousConvMode = DISABLE;
 133              		.loc 1 69 0
 134 0014 0373     		strb	r3, [r0, #12]
  70:Core/Src/adc.c ****   hadc2.Init.DiscontinuousConvMode = DISABLE;
 135              		.loc 1 70 0
 136 0016 0375     		strb	r3, [r0, #20]
  71:Core/Src/adc.c ****   hadc2.Init.ExternalTrigConv = ADC_SOFTWARE_START;
 137              		.loc 1 71 0
 138 0018 4FF46022 		mov	r2, #917504
 139 001c C261     		str	r2, [r0, #28]
  72:Core/Src/adc.c ****   hadc2.Init.DataAlign = ADC_DATAALIGN_RIGHT;
 140              		.loc 1 72 0
 141 001e 4360     		str	r3, [r0, #4]
  73:Core/Src/adc.c ****   hadc2.Init.NbrOfConversion = 1;
 142              		.loc 1 73 0
 143 0020 0123     		movs	r3, #1
 144 0022 0361     		str	r3, [r0, #16]
  74:Core/Src/adc.c ****   if (HAL_ADC_Init(&hadc2) != HAL_OK)
 145              		.loc 1 74 0
 146 0024 FFF7FEFF 		bl	HAL_ADC_Init
 147              	.LVL4:
 148 0028 08B1     		cbz	r0, .L8
  75:Core/Src/adc.c ****   {
  76:Core/Src/adc.c ****     Error_Handler();
 149              		.loc 1 76 0
 150 002a FFF7FEFF 		bl	Error_Handler
 151              	.LVL5:
 152              	.L8:
  77:Core/Src/adc.c ****   }
  78:Core/Src/adc.c ****   /** Configure Regular Channel
  79:Core/Src/adc.c ****   */
ARM GAS  C:\Users\ADMINI~1\AppData\Local\Temp\cckh5Gsh.s 			page 5


  80:Core/Src/adc.c ****   sConfig.Channel = ADC_CHANNEL_4;
 153              		.loc 1 80 0
 154 002e 0423     		movs	r3, #4
 155 0030 0193     		str	r3, [sp, #4]
  81:Core/Src/adc.c ****   sConfig.Rank = ADC_REGULAR_RANK_1;
 156              		.loc 1 81 0
 157 0032 0123     		movs	r3, #1
 158 0034 0293     		str	r3, [sp, #8]
  82:Core/Src/adc.c ****   sConfig.SamplingTime = ADC_SAMPLETIME_1CYCLE_5;
 159              		.loc 1 82 0
 160 0036 0023     		movs	r3, #0
 161 0038 0393     		str	r3, [sp, #12]
  83:Core/Src/adc.c ****   if (HAL_ADC_ConfigChannel(&hadc2, &sConfig) != HAL_OK)
 162              		.loc 1 83 0
 163 003a 01A9     		add	r1, sp, #4
 164 003c 0448     		ldr	r0, .L11
 165 003e FFF7FEFF 		bl	HAL_ADC_ConfigChannel
 166              	.LVL6:
 167 0042 08B1     		cbz	r0, .L7
  84:Core/Src/adc.c ****   {
  85:Core/Src/adc.c ****     Error_Handler();
 168              		.loc 1 85 0
 169 0044 FFF7FEFF 		bl	Error_Handler
 170              	.LVL7:
 171              	.L7:
  86:Core/Src/adc.c ****   }
  87:Core/Src/adc.c **** 
  88:Core/Src/adc.c **** }
 172              		.loc 1 88 0
 173 0048 05B0     		add	sp, sp, #20
 174              	.LCFI5:
 175              		.cfi_def_cfa_offset 4
 176              		@ sp needed
 177 004a 5DF804FB 		ldr	pc, [sp], #4
 178              	.L12:
 179 004e 00BF     		.align	2
 180              	.L11:
 181 0050 00000000 		.word	hadc2
 182 0054 00280140 		.word	1073817600
 183              		.cfi_endproc
 184              	.LFE66:
 186              		.section	.text.MX_ADC3_Init,"ax",%progbits
 187              		.align	2
 188              		.global	MX_ADC3_Init
 189              		.thumb
 190              		.thumb_func
 192              	MX_ADC3_Init:
 193              	.LFB67:
  89:Core/Src/adc.c **** /* ADC3 init function */
  90:Core/Src/adc.c **** void MX_ADC3_Init(void)
  91:Core/Src/adc.c **** {
 194              		.loc 1 91 0
 195              		.cfi_startproc
 196              		@ args = 0, pretend = 0, frame = 16
 197              		@ frame_needed = 0, uses_anonymous_args = 0
 198 0000 00B5     		push	{lr}
 199              	.LCFI6:
ARM GAS  C:\Users\ADMINI~1\AppData\Local\Temp\cckh5Gsh.s 			page 6


 200              		.cfi_def_cfa_offset 4
 201              		.cfi_offset 14, -4
 202 0002 85B0     		sub	sp, sp, #20
 203              	.LCFI7:
 204              		.cfi_def_cfa_offset 24
  92:Core/Src/adc.c ****   ADC_ChannelConfTypeDef sConfig = {0};
 205              		.loc 1 92 0
 206 0004 0023     		movs	r3, #0
 207 0006 0193     		str	r3, [sp, #4]
 208 0008 0293     		str	r3, [sp, #8]
 209 000a 0393     		str	r3, [sp, #12]
  93:Core/Src/adc.c **** 
  94:Core/Src/adc.c ****   /** Common config
  95:Core/Src/adc.c ****   */
  96:Core/Src/adc.c ****   hadc3.Instance = ADC3;
 210              		.loc 1 96 0
 211 000c 1048     		ldr	r0, .L17
 212 000e 114A     		ldr	r2, .L17+4
 213 0010 0260     		str	r2, [r0]
  97:Core/Src/adc.c ****   hadc3.Init.ScanConvMode = ADC_SCAN_DISABLE;
 214              		.loc 1 97 0
 215 0012 8360     		str	r3, [r0, #8]
  98:Core/Src/adc.c ****   hadc3.Init.ContinuousConvMode = DISABLE;
 216              		.loc 1 98 0
 217 0014 0373     		strb	r3, [r0, #12]
  99:Core/Src/adc.c ****   hadc3.Init.DiscontinuousConvMode = DISABLE;
 218              		.loc 1 99 0
 219 0016 0375     		strb	r3, [r0, #20]
 100:Core/Src/adc.c ****   hadc3.Init.ExternalTrigConv = ADC_SOFTWARE_START;
 220              		.loc 1 100 0
 221 0018 4FF46022 		mov	r2, #917504
 222 001c C261     		str	r2, [r0, #28]
 101:Core/Src/adc.c ****   hadc3.Init.DataAlign = ADC_DATAALIGN_RIGHT;
 223              		.loc 1 101 0
 224 001e 4360     		str	r3, [r0, #4]
 102:Core/Src/adc.c ****   hadc3.Init.NbrOfConversion = 1;
 225              		.loc 1 102 0
 226 0020 0123     		movs	r3, #1
 227 0022 0361     		str	r3, [r0, #16]
 103:Core/Src/adc.c ****   if (HAL_ADC_Init(&hadc3) != HAL_OK)
 228              		.loc 1 103 0
 229 0024 FFF7FEFF 		bl	HAL_ADC_Init
 230              	.LVL8:
 231 0028 08B1     		cbz	r0, .L14
 104:Core/Src/adc.c ****   {
 105:Core/Src/adc.c ****     Error_Handler();
 232              		.loc 1 105 0
 233 002a FFF7FEFF 		bl	Error_Handler
 234              	.LVL9:
 235              	.L14:
 106:Core/Src/adc.c ****   }
 107:Core/Src/adc.c ****   /** Configure Regular Channel
 108:Core/Src/adc.c ****   */
 109:Core/Src/adc.c ****   sConfig.Channel = ADC_CHANNEL_2;
 236              		.loc 1 109 0
 237 002e 0223     		movs	r3, #2
 238 0030 0193     		str	r3, [sp, #4]
ARM GAS  C:\Users\ADMINI~1\AppData\Local\Temp\cckh5Gsh.s 			page 7


 110:Core/Src/adc.c ****   sConfig.Rank = ADC_REGULAR_RANK_1;
 239              		.loc 1 110 0
 240 0032 0123     		movs	r3, #1
 241 0034 0293     		str	r3, [sp, #8]
 111:Core/Src/adc.c ****   sConfig.SamplingTime = ADC_SAMPLETIME_1CYCLE_5;
 242              		.loc 1 111 0
 243 0036 0023     		movs	r3, #0
 244 0038 0393     		str	r3, [sp, #12]
 112:Core/Src/adc.c ****   if (HAL_ADC_ConfigChannel(&hadc3, &sConfig) != HAL_OK)
 245              		.loc 1 112 0
 246 003a 01A9     		add	r1, sp, #4
 247 003c 0448     		ldr	r0, .L17
 248 003e FFF7FEFF 		bl	HAL_ADC_ConfigChannel
 249              	.LVL10:
 250 0042 08B1     		cbz	r0, .L13
 113:Core/Src/adc.c ****   {
 114:Core/Src/adc.c ****     Error_Handler();
 251              		.loc 1 114 0
 252 0044 FFF7FEFF 		bl	Error_Handler
 253              	.LVL11:
 254              	.L13:
 115:Core/Src/adc.c ****   }
 116:Core/Src/adc.c **** 
 117:Core/Src/adc.c **** }
 255              		.loc 1 117 0
 256 0048 05B0     		add	sp, sp, #20
 257              	.LCFI8:
 258              		.cfi_def_cfa_offset 4
 259              		@ sp needed
 260 004a 5DF804FB 		ldr	pc, [sp], #4
 261              	.L18:
 262 004e 00BF     		.align	2
 263              	.L17:
 264 0050 00000000 		.word	hadc3
 265 0054 003C0140 		.word	1073822720
 266              		.cfi_endproc
 267              	.LFE67:
 269              		.section	.text.HAL_ADC_MspInit,"ax",%progbits
 270              		.align	2
 271              		.global	HAL_ADC_MspInit
 272              		.thumb
 273              		.thumb_func
 275              	HAL_ADC_MspInit:
 276              	.LFB68:
 118:Core/Src/adc.c **** 
 119:Core/Src/adc.c **** void HAL_ADC_MspInit(ADC_HandleTypeDef* adcHandle)
 120:Core/Src/adc.c **** {
 277              		.loc 1 120 0
 278              		.cfi_startproc
 279              		@ args = 0, pretend = 0, frame = 40
 280              		@ frame_needed = 0, uses_anonymous_args = 0
 281              	.LVL12:
 282 0000 00B5     		push	{lr}
 283              	.LCFI9:
 284              		.cfi_def_cfa_offset 4
 285              		.cfi_offset 14, -4
 286 0002 8BB0     		sub	sp, sp, #44
ARM GAS  C:\Users\ADMINI~1\AppData\Local\Temp\cckh5Gsh.s 			page 8


 287              	.LCFI10:
 288              		.cfi_def_cfa_offset 48
 121:Core/Src/adc.c **** 
 122:Core/Src/adc.c ****   GPIO_InitTypeDef GPIO_InitStruct = {0};
 289              		.loc 1 122 0
 290 0004 0023     		movs	r3, #0
 291 0006 0693     		str	r3, [sp, #24]
 292 0008 0793     		str	r3, [sp, #28]
 293 000a 0893     		str	r3, [sp, #32]
 294 000c 0993     		str	r3, [sp, #36]
 123:Core/Src/adc.c ****   if(adcHandle->Instance==ADC1)
 295              		.loc 1 123 0
 296 000e 0368     		ldr	r3, [r0]
 297 0010 2E4A     		ldr	r2, .L24
 298 0012 9342     		cmp	r3, r2
 299 0014 1AD1     		bne	.L20
 300              	.LBB2:
 124:Core/Src/adc.c ****   {
 125:Core/Src/adc.c ****   /* USER CODE BEGIN ADC1_MspInit 0 */
 126:Core/Src/adc.c **** 
 127:Core/Src/adc.c ****   /* USER CODE END ADC1_MspInit 0 */
 128:Core/Src/adc.c ****     /* ADC1 clock enable */
 129:Core/Src/adc.c ****     __HAL_RCC_ADC1_CLK_ENABLE();
 301              		.loc 1 129 0
 302 0016 2E4B     		ldr	r3, .L24+4
 303 0018 9A69     		ldr	r2, [r3, #24]
 304 001a 42F40072 		orr	r2, r2, #512
 305 001e 9A61     		str	r2, [r3, #24]
 306 0020 9A69     		ldr	r2, [r3, #24]
 307 0022 02F40072 		and	r2, r2, #512
 308 0026 0092     		str	r2, [sp]
 309 0028 009A     		ldr	r2, [sp]
 310              	.LBE2:
 311              	.LBB3:
 130:Core/Src/adc.c **** 
 131:Core/Src/adc.c ****     __HAL_RCC_GPIOC_CLK_ENABLE();
 312              		.loc 1 131 0
 313 002a 9A69     		ldr	r2, [r3, #24]
 314 002c 42F01002 		orr	r2, r2, #16
 315 0030 9A61     		str	r2, [r3, #24]
 316 0032 9B69     		ldr	r3, [r3, #24]
 317 0034 03F01003 		and	r3, r3, #16
 318 0038 0193     		str	r3, [sp, #4]
 319 003a 019B     		ldr	r3, [sp, #4]
 320              	.LBE3:
 132:Core/Src/adc.c ****     /**ADC1 GPIO Configuration
 133:Core/Src/adc.c ****     PC0     ------> ADC1_IN10
 134:Core/Src/adc.c ****     PC1     ------> ADC1_IN11
 135:Core/Src/adc.c ****     */
 136:Core/Src/adc.c ****     GPIO_InitStruct.Pin = GPIO_PIN_0|GPIO_PIN_1;
 321              		.loc 1 136 0
 322 003c 0323     		movs	r3, #3
 323 003e 0693     		str	r3, [sp, #24]
 137:Core/Src/adc.c ****     GPIO_InitStruct.Mode = GPIO_MODE_ANALOG;
 324              		.loc 1 137 0
 325 0040 0793     		str	r3, [sp, #28]
 138:Core/Src/adc.c ****     HAL_GPIO_Init(GPIOC, &GPIO_InitStruct);
ARM GAS  C:\Users\ADMINI~1\AppData\Local\Temp\cckh5Gsh.s 			page 9


 326              		.loc 1 138 0
 327 0042 06A9     		add	r1, sp, #24
 328 0044 2348     		ldr	r0, .L24+8
 329              	.LVL13:
 330 0046 FFF7FEFF 		bl	HAL_GPIO_Init
 331              	.LVL14:
 332 004a 3CE0     		b	.L19
 333              	.LVL15:
 334              	.L20:
 139:Core/Src/adc.c **** 
 140:Core/Src/adc.c ****   /* USER CODE BEGIN ADC1_MspInit 1 */
 141:Core/Src/adc.c **** 
 142:Core/Src/adc.c ****   /* USER CODE END ADC1_MspInit 1 */
 143:Core/Src/adc.c ****   }
 144:Core/Src/adc.c ****   else if(adcHandle->Instance==ADC2)
 335              		.loc 1 144 0
 336 004c 224A     		ldr	r2, .L24+12
 337 004e 9342     		cmp	r3, r2
 338 0050 1BD1     		bne	.L22
 339              	.LBB4:
 145:Core/Src/adc.c ****   {
 146:Core/Src/adc.c ****   /* USER CODE BEGIN ADC2_MspInit 0 */
 147:Core/Src/adc.c **** 
 148:Core/Src/adc.c ****   /* USER CODE END ADC2_MspInit 0 */
 149:Core/Src/adc.c ****     /* ADC2 clock enable */
 150:Core/Src/adc.c ****     __HAL_RCC_ADC2_CLK_ENABLE();
 340              		.loc 1 150 0
 341 0052 1F4B     		ldr	r3, .L24+4
 342 0054 9A69     		ldr	r2, [r3, #24]
 343 0056 42F48062 		orr	r2, r2, #1024
 344 005a 9A61     		str	r2, [r3, #24]
 345 005c 9A69     		ldr	r2, [r3, #24]
 346 005e 02F48062 		and	r2, r2, #1024
 347 0062 0292     		str	r2, [sp, #8]
 348 0064 029A     		ldr	r2, [sp, #8]
 349              	.LBE4:
 350              	.LBB5:
 151:Core/Src/adc.c **** 
 152:Core/Src/adc.c ****     __HAL_RCC_GPIOA_CLK_ENABLE();
 351              		.loc 1 152 0
 352 0066 9A69     		ldr	r2, [r3, #24]
 353 0068 42F00402 		orr	r2, r2, #4
 354 006c 9A61     		str	r2, [r3, #24]
 355 006e 9B69     		ldr	r3, [r3, #24]
 356 0070 03F00403 		and	r3, r3, #4
 357 0074 0393     		str	r3, [sp, #12]
 358 0076 039B     		ldr	r3, [sp, #12]
 359              	.LBE5:
 153:Core/Src/adc.c ****     /**ADC2 GPIO Configuration
 154:Core/Src/adc.c ****     PA4     ------> ADC2_IN4
 155:Core/Src/adc.c ****     PA5     ------> ADC2_IN5
 156:Core/Src/adc.c ****     */
 157:Core/Src/adc.c ****     GPIO_InitStruct.Pin = GPIO_PIN_4|GPIO_PIN_5;
 360              		.loc 1 157 0
 361 0078 3023     		movs	r3, #48
 362 007a 0693     		str	r3, [sp, #24]
 158:Core/Src/adc.c ****     GPIO_InitStruct.Mode = GPIO_MODE_ANALOG;
ARM GAS  C:\Users\ADMINI~1\AppData\Local\Temp\cckh5Gsh.s 			page 10


 363              		.loc 1 158 0
 364 007c 0323     		movs	r3, #3
 365 007e 0793     		str	r3, [sp, #28]
 159:Core/Src/adc.c ****     HAL_GPIO_Init(GPIOA, &GPIO_InitStruct);
 366              		.loc 1 159 0
 367 0080 06A9     		add	r1, sp, #24
 368 0082 1648     		ldr	r0, .L24+16
 369              	.LVL16:
 370 0084 FFF7FEFF 		bl	HAL_GPIO_Init
 371              	.LVL17:
 372 0088 1DE0     		b	.L19
 373              	.LVL18:
 374              	.L22:
 160:Core/Src/adc.c **** 
 161:Core/Src/adc.c ****   /* USER CODE BEGIN ADC2_MspInit 1 */
 162:Core/Src/adc.c **** 
 163:Core/Src/adc.c ****   /* USER CODE END ADC2_MspInit 1 */
 164:Core/Src/adc.c ****   }
 165:Core/Src/adc.c ****   else if(adcHandle->Instance==ADC3)
 375              		.loc 1 165 0
 376 008a 154A     		ldr	r2, .L24+20
 377 008c 9342     		cmp	r3, r2
 378 008e 1AD1     		bne	.L19
 379              	.LBB6:
 166:Core/Src/adc.c ****   {
 167:Core/Src/adc.c ****   /* USER CODE BEGIN ADC3_MspInit 0 */
 168:Core/Src/adc.c **** 
 169:Core/Src/adc.c ****   /* USER CODE END ADC3_MspInit 0 */
 170:Core/Src/adc.c ****     /* ADC3 clock enable */
 171:Core/Src/adc.c ****     __HAL_RCC_ADC3_CLK_ENABLE();
 380              		.loc 1 171 0
 381 0090 0F4B     		ldr	r3, .L24+4
 382 0092 9A69     		ldr	r2, [r3, #24]
 383 0094 42F40042 		orr	r2, r2, #32768
 384 0098 9A61     		str	r2, [r3, #24]
 385 009a 9A69     		ldr	r2, [r3, #24]
 386 009c 02F40042 		and	r2, r2, #32768
 387 00a0 0492     		str	r2, [sp, #16]
 388 00a2 049A     		ldr	r2, [sp, #16]
 389              	.LBE6:
 390              	.LBB7:
 172:Core/Src/adc.c **** 
 173:Core/Src/adc.c ****     __HAL_RCC_GPIOA_CLK_ENABLE();
 391              		.loc 1 173 0
 392 00a4 9A69     		ldr	r2, [r3, #24]
 393 00a6 42F00402 		orr	r2, r2, #4
 394 00aa 9A61     		str	r2, [r3, #24]
 395 00ac 9B69     		ldr	r3, [r3, #24]
 396 00ae 03F00403 		and	r3, r3, #4
 397 00b2 0593     		str	r3, [sp, #20]
 398 00b4 059B     		ldr	r3, [sp, #20]
 399              	.LBE7:
 174:Core/Src/adc.c ****     /**ADC3 GPIO Configuration
 175:Core/Src/adc.c ****     PA2     ------> ADC3_IN2
 176:Core/Src/adc.c ****     PA3     ------> ADC3_IN3
 177:Core/Src/adc.c ****     */
 178:Core/Src/adc.c ****     GPIO_InitStruct.Pin = GPIO_PIN_2|GPIO_PIN_3;
ARM GAS  C:\Users\ADMINI~1\AppData\Local\Temp\cckh5Gsh.s 			page 11


 400              		.loc 1 178 0
 401 00b6 0C23     		movs	r3, #12
 402 00b8 0693     		str	r3, [sp, #24]
 179:Core/Src/adc.c ****     GPIO_InitStruct.Mode = GPIO_MODE_ANALOG;
 403              		.loc 1 179 0
 404 00ba 0323     		movs	r3, #3
 405 00bc 0793     		str	r3, [sp, #28]
 180:Core/Src/adc.c ****     HAL_GPIO_Init(GPIOA, &GPIO_InitStruct);
 406              		.loc 1 180 0
 407 00be 06A9     		add	r1, sp, #24
 408 00c0 0648     		ldr	r0, .L24+16
 409              	.LVL19:
 410 00c2 FFF7FEFF 		bl	HAL_GPIO_Init
 411              	.LVL20:
 412              	.L19:
 181:Core/Src/adc.c **** 
 182:Core/Src/adc.c ****   /* USER CODE BEGIN ADC3_MspInit 1 */
 183:Core/Src/adc.c **** 
 184:Core/Src/adc.c ****   /* USER CODE END ADC3_MspInit 1 */
 185:Core/Src/adc.c ****   }
 186:Core/Src/adc.c **** }
 413              		.loc 1 186 0
 414 00c6 0BB0     		add	sp, sp, #44
 415              	.LCFI11:
 416              		.cfi_def_cfa_offset 4
 417              		@ sp needed
 418 00c8 5DF804FB 		ldr	pc, [sp], #4
 419              	.L25:
 420              		.align	2
 421              	.L24:
 422 00cc 00240140 		.word	1073816576
 423 00d0 00100240 		.word	1073876992
 424 00d4 00100140 		.word	1073811456
 425 00d8 00280140 		.word	1073817600
 426 00dc 00080140 		.word	1073809408
 427 00e0 003C0140 		.word	1073822720
 428              		.cfi_endproc
 429              	.LFE68:
 431              		.section	.text.HAL_ADC_MspDeInit,"ax",%progbits
 432              		.align	2
 433              		.global	HAL_ADC_MspDeInit
 434              		.thumb
 435              		.thumb_func
 437              	HAL_ADC_MspDeInit:
 438              	.LFB69:
 187:Core/Src/adc.c **** 
 188:Core/Src/adc.c **** void HAL_ADC_MspDeInit(ADC_HandleTypeDef* adcHandle)
 189:Core/Src/adc.c **** {
 439              		.loc 1 189 0
 440              		.cfi_startproc
 441              		@ args = 0, pretend = 0, frame = 0
 442              		@ frame_needed = 0, uses_anonymous_args = 0
 443              	.LVL21:
 444 0000 08B5     		push	{r3, lr}
 445              	.LCFI12:
 446              		.cfi_def_cfa_offset 8
 447              		.cfi_offset 3, -8
ARM GAS  C:\Users\ADMINI~1\AppData\Local\Temp\cckh5Gsh.s 			page 12


 448              		.cfi_offset 14, -4
 190:Core/Src/adc.c **** 
 191:Core/Src/adc.c ****   if(adcHandle->Instance==ADC1)
 449              		.loc 1 191 0
 450 0002 0368     		ldr	r3, [r0]
 451 0004 144A     		ldr	r2, .L31
 452 0006 9342     		cmp	r3, r2
 453 0008 0AD1     		bne	.L27
 192:Core/Src/adc.c ****   {
 193:Core/Src/adc.c ****   /* USER CODE BEGIN ADC1_MspDeInit 0 */
 194:Core/Src/adc.c **** 
 195:Core/Src/adc.c ****   /* USER CODE END ADC1_MspDeInit 0 */
 196:Core/Src/adc.c ****     /* Peripheral clock disable */
 197:Core/Src/adc.c ****     __HAL_RCC_ADC1_CLK_DISABLE();
 454              		.loc 1 197 0
 455 000a 02F56C42 		add	r2, r2, #60416
 456 000e 9369     		ldr	r3, [r2, #24]
 457 0010 23F40073 		bic	r3, r3, #512
 458 0014 9361     		str	r3, [r2, #24]
 198:Core/Src/adc.c **** 
 199:Core/Src/adc.c ****     /**ADC1 GPIO Configuration
 200:Core/Src/adc.c ****     PC0     ------> ADC1_IN10
 201:Core/Src/adc.c ****     PC1     ------> ADC1_IN11
 202:Core/Src/adc.c ****     */
 203:Core/Src/adc.c ****     HAL_GPIO_DeInit(GPIOC, GPIO_PIN_0|GPIO_PIN_1);
 459              		.loc 1 203 0
 460 0016 0321     		movs	r1, #3
 461 0018 1048     		ldr	r0, .L31+4
 462              	.LVL22:
 463 001a FFF7FEFF 		bl	HAL_GPIO_DeInit
 464              	.LVL23:
 465 001e 08BD     		pop	{r3, pc}
 466              	.LVL24:
 467              	.L27:
 204:Core/Src/adc.c **** 
 205:Core/Src/adc.c ****   /* USER CODE BEGIN ADC1_MspDeInit 1 */
 206:Core/Src/adc.c **** 
 207:Core/Src/adc.c ****   /* USER CODE END ADC1_MspDeInit 1 */
 208:Core/Src/adc.c ****   }
 209:Core/Src/adc.c ****   else if(adcHandle->Instance==ADC2)
 468              		.loc 1 209 0
 469 0020 0F4A     		ldr	r2, .L31+8
 470 0022 9342     		cmp	r3, r2
 471 0024 0AD1     		bne	.L29
 210:Core/Src/adc.c ****   {
 211:Core/Src/adc.c ****   /* USER CODE BEGIN ADC2_MspDeInit 0 */
 212:Core/Src/adc.c **** 
 213:Core/Src/adc.c ****   /* USER CODE END ADC2_MspDeInit 0 */
 214:Core/Src/adc.c ****     /* Peripheral clock disable */
 215:Core/Src/adc.c ****     __HAL_RCC_ADC2_CLK_DISABLE();
 472              		.loc 1 215 0
 473 0026 02F56842 		add	r2, r2, #59392
 474 002a 9369     		ldr	r3, [r2, #24]
 475 002c 23F48063 		bic	r3, r3, #1024
 476 0030 9361     		str	r3, [r2, #24]
 216:Core/Src/adc.c **** 
 217:Core/Src/adc.c ****     /**ADC2 GPIO Configuration
ARM GAS  C:\Users\ADMINI~1\AppData\Local\Temp\cckh5Gsh.s 			page 13


 218:Core/Src/adc.c ****     PA4     ------> ADC2_IN4
 219:Core/Src/adc.c ****     PA5     ------> ADC2_IN5
 220:Core/Src/adc.c ****     */
 221:Core/Src/adc.c ****     HAL_GPIO_DeInit(GPIOA, GPIO_PIN_4|GPIO_PIN_5);
 477              		.loc 1 221 0
 478 0032 3021     		movs	r1, #48
 479 0034 0B48     		ldr	r0, .L31+12
 480              	.LVL25:
 481 0036 FFF7FEFF 		bl	HAL_GPIO_DeInit
 482              	.LVL26:
 483 003a 08BD     		pop	{r3, pc}
 484              	.LVL27:
 485              	.L29:
 222:Core/Src/adc.c **** 
 223:Core/Src/adc.c ****   /* USER CODE BEGIN ADC2_MspDeInit 1 */
 224:Core/Src/adc.c **** 
 225:Core/Src/adc.c ****   /* USER CODE END ADC2_MspDeInit 1 */
 226:Core/Src/adc.c ****   }
 227:Core/Src/adc.c ****   else if(adcHandle->Instance==ADC3)
 486              		.loc 1 227 0
 487 003c 0A4A     		ldr	r2, .L31+16
 488 003e 9342     		cmp	r3, r2
 489 0040 09D1     		bne	.L26
 228:Core/Src/adc.c ****   {
 229:Core/Src/adc.c ****   /* USER CODE BEGIN ADC3_MspDeInit 0 */
 230:Core/Src/adc.c **** 
 231:Core/Src/adc.c ****   /* USER CODE END ADC3_MspDeInit 0 */
 232:Core/Src/adc.c ****     /* Peripheral clock disable */
 233:Core/Src/adc.c ****     __HAL_RCC_ADC3_CLK_DISABLE();
 490              		.loc 1 233 0
 491 0042 02F55442 		add	r2, r2, #54272
 492 0046 9369     		ldr	r3, [r2, #24]
 493 0048 23F40043 		bic	r3, r3, #32768
 494 004c 9361     		str	r3, [r2, #24]
 234:Core/Src/adc.c **** 
 235:Core/Src/adc.c ****     /**ADC3 GPIO Configuration
 236:Core/Src/adc.c ****     PA2     ------> ADC3_IN2
 237:Core/Src/adc.c ****     PA3     ------> ADC3_IN3
 238:Core/Src/adc.c ****     */
 239:Core/Src/adc.c ****     HAL_GPIO_DeInit(GPIOA, GPIO_PIN_2|GPIO_PIN_3);
 495              		.loc 1 239 0
 496 004e 0C21     		movs	r1, #12
 497 0050 0448     		ldr	r0, .L31+12
 498              	.LVL28:
 499 0052 FFF7FEFF 		bl	HAL_GPIO_DeInit
 500              	.LVL29:
 501              	.L26:
 502 0056 08BD     		pop	{r3, pc}
 503              	.L32:
 504              		.align	2
 505              	.L31:
 506 0058 00240140 		.word	1073816576
 507 005c 00100140 		.word	1073811456
 508 0060 00280140 		.word	1073817600
 509 0064 00080140 		.word	1073809408
 510 0068 003C0140 		.word	1073822720
 511              		.cfi_endproc
ARM GAS  C:\Users\ADMINI~1\AppData\Local\Temp\cckh5Gsh.s 			page 14


 512              	.LFE69:
 514              		.comm	hadc3,48,4
 515              		.comm	hadc2,48,4
 516              		.comm	hadc1,48,4
 517              		.text
 518              	.Letext0:
 519              		.file 2 "d:\\devtools\\gcc-arm\\arm-none-eabi\\include\\machine\\_default_types.h"
 520              		.file 3 "d:\\devtools\\gcc-arm\\arm-none-eabi\\include\\sys\\_stdint.h"
 521              		.file 4 "Drivers/CMSIS/Device/ST/STM32F1xx/Include/stm32f103xe.h"
 522              		.file 5 "Drivers/CMSIS/Device/ST/STM32F1xx/Include/stm32f1xx.h"
 523              		.file 6 "Drivers/STM32F1xx_HAL_Driver/Inc/stm32f1xx_hal_def.h"
 524              		.file 7 "Drivers/STM32F1xx_HAL_Driver/Inc/stm32f1xx_hal_gpio.h"
 525              		.file 8 "Drivers/STM32F1xx_HAL_Driver/Inc/stm32f1xx_hal_dma.h"
 526              		.file 9 "Drivers/STM32F1xx_HAL_Driver/Inc/stm32f1xx_hal_adc.h"
 527              		.file 10 "Drivers/CMSIS/Include/core_cm3.h"
 528              		.file 11 "Core/Inc/main.h"
ARM GAS  C:\Users\ADMINI~1\AppData\Local\Temp\cckh5Gsh.s 			page 15

