ARM GAS  C:\Users\ADMINI~1\AppData\Local\Temp\ccsZ4KSY.s 			page 1


   1              		.syntax unified
   2              		.cpu cortex-m3
   3              		.fpu softvfp
   4              		.eabi_attribute 20, 1
   5              		.eabi_attribute 21, 1
   6              		.eabi_attribute 23, 3
   7              		.eabi_attribute 24, 1
   8              		.eabi_attribute 25, 1
   9              		.eabi_attribute 26, 1
  10              		.eabi_attribute 30, 1
  11              		.eabi_attribute 34, 1
  12              		.eabi_attribute 18, 4
  13              		.thumb
  14              		.syntax unified
  15              		.file	"rtc.c"
  16              		.text
  17              	.Ltext0:
  18              		.cfi_sections	.debug_frame
  19              		.section	.text.RTC_First_Init,"ax",%progbits
  20              		.align	2
  21              		.global	RTC_First_Init
  22              		.thumb
  23              		.thumb_func
  25              	RTC_First_Init:
  26              	.LFB65:
  27              		.file 1 "Core/Src/rtc.c"
   1:Core/Src/rtc.c **** /**
   2:Core/Src/rtc.c ****   ******************************************************************************
   3:Core/Src/rtc.c ****   * File Name          : RTC.c
   4:Core/Src/rtc.c ****   * Description        : This file provides code for the configuration
   5:Core/Src/rtc.c ****   *                      of the RTC instances.
   6:Core/Src/rtc.c ****   ******************************************************************************
   7:Core/Src/rtc.c ****   * @attention
   8:Core/Src/rtc.c ****   *
   9:Core/Src/rtc.c ****   * <h2><center>&copy; Copyright (c) 2020 STMicroelectronics.
  10:Core/Src/rtc.c ****   * All rights reserved.</center></h2>
  11:Core/Src/rtc.c ****   *
  12:Core/Src/rtc.c ****   * This software component is licensed by ST under Ultimate Liberty license
  13:Core/Src/rtc.c ****   * SLA0044, the "License"; You may not use this file except in compliance with
  14:Core/Src/rtc.c ****   * the License. You may obtain a copy of the License at:
  15:Core/Src/rtc.c ****   *                             www.st.com/SLA0044
  16:Core/Src/rtc.c ****   *
  17:Core/Src/rtc.c ****   ******************************************************************************
  18:Core/Src/rtc.c ****   */
  19:Core/Src/rtc.c **** 
  20:Core/Src/rtc.c **** /* Includes ------------------------------------------------------------------*/
  21:Core/Src/rtc.c **** #include "rtc.h"
  22:Core/Src/rtc.c **** 
  23:Core/Src/rtc.c **** /* USER CODE BEGIN 0 */
  24:Core/Src/rtc.c **** void RTC_First_Init(RTC_HandleTypeDef* hrtc) {
  28              		.loc 1 24 0
  29              		.cfi_startproc
  30              		@ args = 0, pretend = 0, frame = 8
  31              		@ frame_needed = 0, uses_anonymous_args = 0
  32              	.LVL0:
  33 0000 10B5     		push	{r4, lr}
  34              	.LCFI0:
ARM GAS  C:\Users\ADMINI~1\AppData\Local\Temp\ccsZ4KSY.s 			page 2


  35              		.cfi_def_cfa_offset 8
  36              		.cfi_offset 4, -8
  37              		.cfi_offset 14, -4
  38 0002 82B0     		sub	sp, sp, #8
  39              	.LCFI1:
  40              		.cfi_def_cfa_offset 16
  41 0004 0446     		mov	r4, r0
  25:Core/Src/rtc.c ****   if (HAL_RTCEx_BKUPRead(hrtc, RTC_BKP_DR1)==FIRST_INIT)
  42              		.loc 1 25 0
  43 0006 0121     		movs	r1, #1
  44 0008 FFF7FEFF 		bl	HAL_RTCEx_BKUPRead
  45              	.LVL1:
  46 000c 4FF2F003 		movw	r3, #61680
  47 0010 9842     		cmp	r0, r3
  48 0012 27D1     		bne	.L1
  49              	.LBB2:
  26:Core/Src/rtc.c ****   {
  27:Core/Src/rtc.c ****     RTC_TimeTypeDef time = {0};
  50              		.loc 1 27 0
  51 0014 0022     		movs	r2, #0
  52 0016 ADF80020 		strh	r2, [sp]	@ movhi
  53 001a 8DF80220 		strb	r2, [sp, #2]
  28:Core/Src/rtc.c ****     RTC_DateTypeDef date = {0};
  54              		.loc 1 28 0
  55 001e 0192     		str	r2, [sp, #4]
  29:Core/Src/rtc.c ****     time.Hours = 12;
  56              		.loc 1 29 0
  57 0020 0C23     		movs	r3, #12
  58 0022 8DF80030 		strb	r3, [sp]
  30:Core/Src/rtc.c ****     time.Minutes = 0;
  31:Core/Src/rtc.c ****     time.Seconds = 0;
  32:Core/Src/rtc.c **** 
  33:Core/Src/rtc.c ****     if (HAL_RTC_SetTime(hrtc, &time, RTC_FORMAT_BIN) != HAL_OK)
  59              		.loc 1 33 0
  60 0026 6946     		mov	r1, sp
  61 0028 2046     		mov	r0, r4
  62 002a FFF7FEFF 		bl	HAL_RTC_SetTime
  63              	.LVL2:
  64 002e 08B1     		cbz	r0, .L3
  34:Core/Src/rtc.c ****     {
  35:Core/Src/rtc.c ****       Error_Handler();
  65              		.loc 1 35 0
  66 0030 FFF7FEFF 		bl	Error_Handler
  67              	.LVL3:
  68              	.L3:
  36:Core/Src/rtc.c ****     }
  37:Core/Src/rtc.c ****     date.WeekDay = RTC_WEEKDAY_MONDAY;
  69              		.loc 1 37 0
  70 0034 0123     		movs	r3, #1
  71 0036 8DF80430 		strb	r3, [sp, #4]
  38:Core/Src/rtc.c ****     date.Month = RTC_MONTH_JANUARY;
  72              		.loc 1 38 0
  73 003a 8DF80530 		strb	r3, [sp, #5]
  39:Core/Src/rtc.c ****     date.Date = 1;
  74              		.loc 1 39 0
  75 003e 8DF80630 		strb	r3, [sp, #6]
  40:Core/Src/rtc.c ****     date.Year = 20;
ARM GAS  C:\Users\ADMINI~1\AppData\Local\Temp\ccsZ4KSY.s 			page 3


  76              		.loc 1 40 0
  77 0042 1423     		movs	r3, #20
  78 0044 8DF80730 		strb	r3, [sp, #7]
  41:Core/Src/rtc.c **** 
  42:Core/Src/rtc.c ****     if (HAL_RTC_SetDate(hrtc, &date, RTC_FORMAT_BIN) != HAL_OK)
  79              		.loc 1 42 0
  80 0048 0022     		movs	r2, #0
  81 004a 01A9     		add	r1, sp, #4
  82 004c 2046     		mov	r0, r4
  83 004e FFF7FEFF 		bl	HAL_RTC_SetDate
  84              	.LVL4:
  85 0052 08B1     		cbz	r0, .L4
  43:Core/Src/rtc.c ****     {
  44:Core/Src/rtc.c ****       Error_Handler();
  86              		.loc 1 44 0
  87 0054 FFF7FEFF 		bl	Error_Handler
  88              	.LVL5:
  89              	.L4:
  45:Core/Src/rtc.c ****     }
  46:Core/Src/rtc.c **** 
  47:Core/Src/rtc.c ****     HAL_RTCEx_BKUPWrite(hrtc, RTC_BKP_DR1, FIRST_INIT);
  90              		.loc 1 47 0
  91 0058 4FF2F002 		movw	r2, #61680
  92 005c 0121     		movs	r1, #1
  93 005e 2046     		mov	r0, r4
  94 0060 FFF7FEFF 		bl	HAL_RTCEx_BKUPWrite
  95              	.LVL6:
  96              	.L1:
  97              	.LBE2:
  48:Core/Src/rtc.c ****   }
  49:Core/Src/rtc.c **** }
  98              		.loc 1 49 0
  99 0064 02B0     		add	sp, sp, #8
 100              	.LCFI2:
 101              		.cfi_def_cfa_offset 8
 102              		@ sp needed
 103 0066 10BD     		pop	{r4, pc}
 104              		.cfi_endproc
 105              	.LFE65:
 107              		.section	.text.MX_RTC_Init,"ax",%progbits
 108              		.align	2
 109              		.global	MX_RTC_Init
 110              		.thumb
 111              		.thumb_func
 113              	MX_RTC_Init:
 114              	.LFB66:
  50:Core/Src/rtc.c **** 
  51:Core/Src/rtc.c **** /* USER CODE END 0 */
  52:Core/Src/rtc.c **** 
  53:Core/Src/rtc.c **** RTC_HandleTypeDef hrtc;
  54:Core/Src/rtc.c **** 
  55:Core/Src/rtc.c **** /* RTC init function */
  56:Core/Src/rtc.c **** void MX_RTC_Init(void)
  57:Core/Src/rtc.c **** {
 115              		.loc 1 57 0
 116              		.cfi_startproc
 117              		@ args = 0, pretend = 0, frame = 8
ARM GAS  C:\Users\ADMINI~1\AppData\Local\Temp\ccsZ4KSY.s 			page 4


 118              		@ frame_needed = 0, uses_anonymous_args = 0
 119 0000 00B5     		push	{lr}
 120              	.LCFI3:
 121              		.cfi_def_cfa_offset 4
 122              		.cfi_offset 14, -4
 123 0002 83B0     		sub	sp, sp, #12
 124              	.LCFI4:
 125              		.cfi_def_cfa_offset 16
  58:Core/Src/rtc.c ****   RTC_TamperTypeDef sTamper = {0};
 126              		.loc 1 58 0
 127 0004 0023     		movs	r3, #0
 128 0006 0093     		str	r3, [sp]
 129 0008 0193     		str	r3, [sp, #4]
  59:Core/Src/rtc.c **** 
  60:Core/Src/rtc.c ****   /** Initialize RTC Only
  61:Core/Src/rtc.c ****   */
  62:Core/Src/rtc.c ****   hrtc.Instance = RTC;
 130              		.loc 1 62 0
 131 000a 0D48     		ldr	r0, .L10
 132 000c 0D4A     		ldr	r2, .L10+4
 133 000e 0260     		str	r2, [r0]
  63:Core/Src/rtc.c ****   hrtc.Init.AsynchPrediv = RTC_AUTO_1_SECOND;
 134              		.loc 1 63 0
 135 0010 4FF0FF32 		mov	r2, #-1
 136 0014 4260     		str	r2, [r0, #4]
  64:Core/Src/rtc.c ****   hrtc.Init.OutPut = RTC_OUTPUTSOURCE_NONE;
 137              		.loc 1 64 0
 138 0016 8360     		str	r3, [r0, #8]
  65:Core/Src/rtc.c ****   if (HAL_RTC_Init(&hrtc) != HAL_OK)
 139              		.loc 1 65 0
 140 0018 FFF7FEFF 		bl	HAL_RTC_Init
 141              	.LVL7:
 142 001c 08B1     		cbz	r0, .L7
  66:Core/Src/rtc.c ****   {
  67:Core/Src/rtc.c ****     Error_Handler();
 143              		.loc 1 67 0
 144 001e FFF7FEFF 		bl	Error_Handler
 145              	.LVL8:
 146              	.L7:
  68:Core/Src/rtc.c ****   }
  69:Core/Src/rtc.c ****   /** Enable the RTC Tamper
  70:Core/Src/rtc.c ****   */
  71:Core/Src/rtc.c ****   sTamper.Tamper = RTC_TAMPER_1;
 147              		.loc 1 71 0
 148 0022 0123     		movs	r3, #1
 149 0024 0093     		str	r3, [sp]
  72:Core/Src/rtc.c ****   sTamper.Trigger = RTC_TAMPERTRIGGER_LOWLEVEL;
 150              		.loc 1 72 0
 151 0026 0223     		movs	r3, #2
 152 0028 0193     		str	r3, [sp, #4]
  73:Core/Src/rtc.c ****   if (HAL_RTCEx_SetTamper(&hrtc, &sTamper) != HAL_OK)
 153              		.loc 1 73 0
 154 002a 6946     		mov	r1, sp
 155 002c 0448     		ldr	r0, .L10
 156 002e FFF7FEFF 		bl	HAL_RTCEx_SetTamper
 157              	.LVL9:
 158 0032 08B1     		cbz	r0, .L6
ARM GAS  C:\Users\ADMINI~1\AppData\Local\Temp\ccsZ4KSY.s 			page 5


  74:Core/Src/rtc.c ****   {
  75:Core/Src/rtc.c ****     Error_Handler();
 159              		.loc 1 75 0
 160 0034 FFF7FEFF 		bl	Error_Handler
 161              	.LVL10:
 162              	.L6:
  76:Core/Src/rtc.c ****   }
  77:Core/Src/rtc.c **** 
  78:Core/Src/rtc.c **** }
 163              		.loc 1 78 0
 164 0038 03B0     		add	sp, sp, #12
 165              	.LCFI5:
 166              		.cfi_def_cfa_offset 4
 167              		@ sp needed
 168 003a 5DF804FB 		ldr	pc, [sp], #4
 169              	.L11:
 170 003e 00BF     		.align	2
 171              	.L10:
 172 0040 00000000 		.word	hrtc
 173 0044 00280040 		.word	1073752064
 174              		.cfi_endproc
 175              	.LFE66:
 177              		.section	.text.HAL_RTC_MspInit,"ax",%progbits
 178              		.align	2
 179              		.global	HAL_RTC_MspInit
 180              		.thumb
 181              		.thumb_func
 183              	HAL_RTC_MspInit:
 184              	.LFB67:
  79:Core/Src/rtc.c **** 
  80:Core/Src/rtc.c **** void HAL_RTC_MspInit(RTC_HandleTypeDef* rtcHandle)
  81:Core/Src/rtc.c **** {
 185              		.loc 1 81 0
 186              		.cfi_startproc
 187              		@ args = 0, pretend = 0, frame = 8
 188              		@ frame_needed = 0, uses_anonymous_args = 0
 189              	.LVL11:
  82:Core/Src/rtc.c **** 
  83:Core/Src/rtc.c ****   if(rtcHandle->Instance==RTC)
 190              		.loc 1 83 0
 191 0000 0268     		ldr	r2, [r0]
 192 0002 104B     		ldr	r3, .L16
 193 0004 9A42     		cmp	r2, r3
 194 0006 1BD1     		bne	.L15
  81:Core/Src/rtc.c **** 
 195              		.loc 1 81 0
 196 0008 00B5     		push	{lr}
 197              	.LCFI6:
 198              		.cfi_def_cfa_offset 4
 199              		.cfi_offset 14, -4
 200 000a 83B0     		sub	sp, sp, #12
 201              	.LCFI7:
 202              		.cfi_def_cfa_offset 16
  84:Core/Src/rtc.c ****   {
  85:Core/Src/rtc.c ****   /* USER CODE BEGIN RTC_MspInit 0 */
  86:Core/Src/rtc.c **** 
  87:Core/Src/rtc.c ****   /* USER CODE END RTC_MspInit 0 */
ARM GAS  C:\Users\ADMINI~1\AppData\Local\Temp\ccsZ4KSY.s 			page 6


  88:Core/Src/rtc.c ****     HAL_PWR_EnableBkUpAccess();
 203              		.loc 1 88 0
 204 000c FFF7FEFF 		bl	HAL_PWR_EnableBkUpAccess
 205              	.LVL12:
 206              	.LBB3:
  89:Core/Src/rtc.c ****     /* Enable BKP CLK enable for backup registers */
  90:Core/Src/rtc.c ****     __HAL_RCC_BKP_CLK_ENABLE();
 207              		.loc 1 90 0
 208 0010 0D4B     		ldr	r3, .L16+4
 209 0012 DA69     		ldr	r2, [r3, #28]
 210 0014 42F00062 		orr	r2, r2, #134217728
 211 0018 DA61     		str	r2, [r3, #28]
 212 001a DB69     		ldr	r3, [r3, #28]
 213 001c 03F00063 		and	r3, r3, #134217728
 214 0020 0193     		str	r3, [sp, #4]
 215 0022 019B     		ldr	r3, [sp, #4]
 216              	.LBE3:
  91:Core/Src/rtc.c ****     /* RTC clock enable */
  92:Core/Src/rtc.c ****     __HAL_RCC_RTC_ENABLE();
 217              		.loc 1 92 0
 218 0024 0122     		movs	r2, #1
 219 0026 094B     		ldr	r3, .L16+8
 220 0028 1A60     		str	r2, [r3]
  93:Core/Src/rtc.c **** 
  94:Core/Src/rtc.c ****     /* RTC interrupt Init */
  95:Core/Src/rtc.c ****     HAL_NVIC_SetPriority(RTC_IRQn, 0, 0);
 221              		.loc 1 95 0
 222 002a 0022     		movs	r2, #0
 223 002c 1146     		mov	r1, r2
 224 002e 0320     		movs	r0, #3
 225 0030 FFF7FEFF 		bl	HAL_NVIC_SetPriority
 226              	.LVL13:
  96:Core/Src/rtc.c ****     HAL_NVIC_EnableIRQ(RTC_IRQn);
 227              		.loc 1 96 0
 228 0034 0320     		movs	r0, #3
 229 0036 FFF7FEFF 		bl	HAL_NVIC_EnableIRQ
 230              	.LVL14:
  97:Core/Src/rtc.c ****   /* USER CODE BEGIN RTC_MspInit 1 */
  98:Core/Src/rtc.c **** 
  99:Core/Src/rtc.c ****   /* USER CODE END RTC_MspInit 1 */
 100:Core/Src/rtc.c ****   }
 101:Core/Src/rtc.c **** }
 231              		.loc 1 101 0
 232 003a 03B0     		add	sp, sp, #12
 233              	.LCFI8:
 234              		.cfi_def_cfa_offset 4
 235              		@ sp needed
 236 003c 5DF804FB 		ldr	pc, [sp], #4
 237              	.LVL15:
 238              	.L15:
 239              	.LCFI9:
 240              		.cfi_def_cfa_offset 0
 241              		.cfi_restore 14
 242 0040 7047     		bx	lr
 243              	.L17:
 244 0042 00BF     		.align	2
 245              	.L16:
ARM GAS  C:\Users\ADMINI~1\AppData\Local\Temp\ccsZ4KSY.s 			page 7


 246 0044 00280040 		.word	1073752064
 247 0048 00100240 		.word	1073876992
 248 004c 3C044242 		.word	1111622716
 249              		.cfi_endproc
 250              	.LFE67:
 252              		.section	.text.HAL_RTC_MspDeInit,"ax",%progbits
 253              		.align	2
 254              		.global	HAL_RTC_MspDeInit
 255              		.thumb
 256              		.thumb_func
 258              	HAL_RTC_MspDeInit:
 259              	.LFB68:
 102:Core/Src/rtc.c **** 
 103:Core/Src/rtc.c **** void HAL_RTC_MspDeInit(RTC_HandleTypeDef* rtcHandle)
 104:Core/Src/rtc.c **** {
 260              		.loc 1 104 0
 261              		.cfi_startproc
 262              		@ args = 0, pretend = 0, frame = 0
 263              		@ frame_needed = 0, uses_anonymous_args = 0
 264              	.LVL16:
 265 0000 08B5     		push	{r3, lr}
 266              	.LCFI10:
 267              		.cfi_def_cfa_offset 8
 268              		.cfi_offset 3, -8
 269              		.cfi_offset 14, -4
 105:Core/Src/rtc.c **** 
 106:Core/Src/rtc.c ****   if(rtcHandle->Instance==RTC)
 270              		.loc 1 106 0
 271 0002 0268     		ldr	r2, [r0]
 272 0004 044B     		ldr	r3, .L21
 273 0006 9A42     		cmp	r2, r3
 274 0008 05D1     		bne	.L18
 107:Core/Src/rtc.c ****   {
 108:Core/Src/rtc.c ****   /* USER CODE BEGIN RTC_MspDeInit 0 */
 109:Core/Src/rtc.c **** 
 110:Core/Src/rtc.c ****   /* USER CODE END RTC_MspDeInit 0 */
 111:Core/Src/rtc.c ****     /* Peripheral clock disable */
 112:Core/Src/rtc.c ****     __HAL_RCC_RTC_DISABLE();
 275              		.loc 1 112 0
 276 000a 0022     		movs	r2, #0
 277 000c 034B     		ldr	r3, .L21+4
 278 000e 1A60     		str	r2, [r3]
 113:Core/Src/rtc.c **** 
 114:Core/Src/rtc.c ****     /* RTC interrupt Deinit */
 115:Core/Src/rtc.c ****     HAL_NVIC_DisableIRQ(RTC_IRQn);
 279              		.loc 1 115 0
 280 0010 0320     		movs	r0, #3
 281              	.LVL17:
 282 0012 FFF7FEFF 		bl	HAL_NVIC_DisableIRQ
 283              	.LVL18:
 284              	.L18:
 285 0016 08BD     		pop	{r3, pc}
 286              	.L22:
 287              		.align	2
 288              	.L21:
 289 0018 00280040 		.word	1073752064
 290 001c 3C044242 		.word	1111622716
ARM GAS  C:\Users\ADMINI~1\AppData\Local\Temp\ccsZ4KSY.s 			page 8


 291              		.cfi_endproc
 292              	.LFE68:
 294              		.comm	hrtc,20,4
 295              		.text
 296              	.Letext0:
 297              		.file 2 "d:\\devtools\\gcc-arm\\arm-none-eabi\\include\\machine\\_default_types.h"
 298              		.file 3 "d:\\devtools\\gcc-arm\\arm-none-eabi\\include\\sys\\_stdint.h"
 299              		.file 4 "Drivers/CMSIS/Device/ST/STM32F1xx/Include/stm32f103xe.h"
 300              		.file 5 "Drivers/CMSIS/Device/ST/STM32F1xx/Include/stm32f1xx.h"
 301              		.file 6 "Drivers/STM32F1xx_HAL_Driver/Inc/stm32f1xx_hal_def.h"
 302              		.file 7 "Drivers/STM32F1xx_HAL_Driver/Inc/stm32f1xx_hal_rtc.h"
 303              		.file 8 "Drivers/STM32F1xx_HAL_Driver/Inc/stm32f1xx_hal_rtc_ex.h"
 304              		.file 9 "Drivers/CMSIS/Include/core_cm3.h"
 305              		.file 10 "Core/Inc/main.h"
 306              		.file 11 "Drivers/STM32F1xx_HAL_Driver/Inc/stm32f1xx_hal_pwr.h"
 307              		.file 12 "Drivers/STM32F1xx_HAL_Driver/Inc/stm32f1xx_hal_cortex.h"
ARM GAS  C:\Users\ADMINI~1\AppData\Local\Temp\ccsZ4KSY.s 			page 9

